libKF5MediaPlayer.so.5:_ZN12KMediaPlayer4View10hideButtonENS0_6ButtonE
libKF5MediaPlayer.so.5:_ZN12KMediaPlayer4View10setButtonsE6QFlagsINS0_6ButtonEE
libKF5MediaPlayer.so.5:_ZN12KMediaPlayer4View10showButtonENS0_6ButtonE
libKF5MediaPlayer.so.5:_ZN12KMediaPlayer4View11qt_metacallEN11QMetaObject4CallEiPPv
libKF5MediaPlayer.so.5:_ZN12KMediaPlayer4View11qt_metacastEPKc
libKF5MediaPlayer.so.5:_ZN12KMediaPlayer4View11videoWidgetEv
libKF5MediaPlayer.so.5:_ZN12KMediaPlayer4View12toggleButtonENS0_6ButtonE
libKF5MediaPlayer.so.5:_ZN12KMediaPlayer4View14buttonsChangedE6QFlagsINS0_6ButtonEE
libKF5MediaPlayer.so.5:_ZN12KMediaPlayer4View14setVideoWidgetEP7QWidget
libKF5MediaPlayer.so.5:_ZN12KMediaPlayer4View6buttonENS0_6ButtonE
libKF5MediaPlayer.so.5:_ZN12KMediaPlayer4View7buttonsEv
libKF5MediaPlayer.so.5:_ZN12KMediaPlayer4ViewC1EP7QWidget
libKF5MediaPlayer.so.5:_ZN12KMediaPlayer4ViewC2EP7QWidget
libKF5MediaPlayer.so.5:_ZN12KMediaPlayer4ViewD0Ev
libKF5MediaPlayer.so.5:_ZN12KMediaPlayer4ViewD1Ev
libKF5MediaPlayer.so.5:_ZN12KMediaPlayer4ViewD2Ev
libKF5MediaPlayer.so.5:_ZN12KMediaPlayer6Player10setLoopingEb
libKF5MediaPlayer.so.5:_ZN12KMediaPlayer6Player11qt_metacallEN11QMetaObject4CallEiPPv
libKF5MediaPlayer.so.5:_ZN12KMediaPlayer6Player11qt_metacastEPKc
libKF5MediaPlayer.so.5:_ZN12KMediaPlayer6Player12stateChangedENS0_5StateE
libKF5MediaPlayer.so.5:_ZN12KMediaPlayer6Player14loopingChangedEb
libKF5MediaPlayer.so.5:_ZN12KMediaPlayer6Player8setStateENS0_5StateE
libKF5MediaPlayer.so.5:_ZN12KMediaPlayer6PlayerC1EP7QObject
libKF5MediaPlayer.so.5:_ZN12KMediaPlayer6PlayerC1EP7QWidgetPKcP7QObject
libKF5MediaPlayer.so.5:_ZN12KMediaPlayer6PlayerC2EP7QObject
libKF5MediaPlayer.so.5:_ZN12KMediaPlayer6PlayerC2EP7QWidgetPKcP7QObject
libKF5MediaPlayer.so.5:_ZN12KMediaPlayer6PlayerD0Ev
libKF5MediaPlayer.so.5:_ZN12KMediaPlayer6PlayerD1Ev
libKF5MediaPlayer.so.5:_ZN12KMediaPlayer6PlayerD2Ev
libKF5MediaPlayer.so.5:_ZNK12KMediaPlayer4View10metaObjectEv
libKF5MediaPlayer.so.5:_ZNK12KMediaPlayer6Player10metaObjectEv
libKF5MediaPlayer.so.5:_ZNK12KMediaPlayer6Player5stateEv
libKF5MediaPlayer.so.5:_ZNK12KMediaPlayer6Player9isLoopingEv
libKF5MediaPlayer.so.5:_ZThn16_N12KMediaPlayer4ViewD0Ev
libKF5MediaPlayer.so.5:_ZThn16_N12KMediaPlayer4ViewD1Ev
libKF5MediaPlayer.so.5:_ZThn16_N12KMediaPlayer6PlayerD0Ev
libKF5MediaPlayer.so.5:_ZThn16_N12KMediaPlayer6PlayerD1Ev
libKF5MediaPlayer.so.5:_ZTv0_n24_N12KMediaPlayer6PlayerD0Ev
libKF5MediaPlayer.so.5:_ZTv0_n24_N12KMediaPlayer6PlayerD1Ev
